; Function Attrs: nounwind uwtable
define dso_local ptr @expand_list_objects_filter_spec(ptr noundef %0) local_unnamed_addr #0 {
  %2 = getelementptr inbounds nuw i8, ptr %0, i64 24
  %3 = load i32, ptr %2, align 8, !tbaa !4
  %4 = icmp eq i32 %3, 2
  br i1 %4, label %5, label %8

5:                                                ; preds = %1
  tail call void @strbuf_release(ptr noundef nonnull %0) #16
  %6 = getelementptr inbounds nuw i8, ptr %0, i64 40
  %7 = load i64, ptr %6, align 8, !tbaa !40
  tail call void (ptr, ptr, ...) @strbuf_addf(ptr noundef nonnull %0, ptr noundef nonnull @.str.24, i64 noundef %7) #16
  br label %8

8:                                                ; preds = %5, %1
  %9 = getelementptr inbounds nuw i8, ptr %0, i64 8
  %10 = load i64, ptr %9, align 8, !tbaa !34
  %.not.i = icmp eq i64 %10, 0
  br i1 %.not.i, label %11, label %list_objects_filter_spec.exit

11:                                               ; preds = %8
  tail call void (ptr, i32, ptr, ...) @BUG_fl(ptr noundef nonnull @.str.6, i32 noundef 300, ptr noundef nonnull @.str.23) #14
  unreachable

list_objects_filter_spec.exit:                    ; preds = %8
  %12 = getelementptr inbounds nuw i8, ptr %0, i64 16
  %13 = load ptr, ptr %12, align 8, !tbaa !29
  ret ptr %13
}